; Function Attrs: inlinehint mustprogress nounwind optsize uwtable
define internal noundef ptr @"_ZZN8nanobind6detail11func_createILb0ELb1EZL30nanobind_init_test_classes_extRNS_7module_EE3$_8P6AnimalJS6_EJLm0EEJNS_5scopeENS_4nameENS_9rv_policyEEEEP7_objectOT1_PFT2_DpT3_ESt16integer_sequenceImJXspT4_EEEDpRKT5_ENUlPvPSB_PhS9_PNS0_12cleanup_listEE_8__invokeESP_SQ_SR_S9_ST_"(ptr readnone captures(none) %0, ptr noundef readonly captures(none) %1, ptr noundef readonly captures(none) %2, i32 noundef %3, ptr noundef %4) #20 align 2 personality ptr @__gxx_personality_v0 {
  %6 = alloca %"struct.nanobind::detail::tuple.339", align 8
  call void @llvm.lifetime.start.p0(i64 8, ptr nonnull %6) #37
  %7 = load ptr, ptr %1, align 8, !tbaa !23
  %8 = load i8, ptr %2, align 1, !tbaa !61
  %9 = call noundef zeroext i1 @_ZN8nanobind6detail11nb_type_getEPKSt9type_infoP7_objecthPNS0_12cleanup_listEPPv(ptr noundef nonnull @_ZTI6Animal, ptr noundef %7, i8 noundef zeroext %8, ptr noundef %4, ptr noundef nonnull align 8 dereferenceable(8) %6) #35
  br i1 %9, label %10, label %"_ZZN8nanobind6detail11func_createILb0ELb1EZL30nanobind_init_test_classes_extRNS_7module_EE3$_8P6AnimalJS6_EJLm0EEJNS_5scopeENS_4nameENS_9rv_policyEEEEP7_objectOT1_PFT2_DpT3_ESt16integer_sequenceImJXspT4_EEEDpRKT5_ENKUlPvPSB_PhS9_PNS0_12cleanup_listEE_clESP_SQ_SR_S9_ST_.exit"

10:                                               ; preds = %5
  %11 = load ptr, ptr %6, align 8, !tbaa !268
  %12 = icmp eq i32 %3, 0
  %13 = icmp eq i32 %3, 1
  %spec.store.select.i = select i1 %13, i32 5, i32 %3
  %.0.i4 = select i1 %12, i32 2, i32 %spec.store.select.i
  %.not.i = icmp eq ptr %11, null
  br i1 %.not.i, label %_ZN8nanobind6detail16type_caster_baseI6AnimalE8from_cppIPS2_EENS_6handleEOT_NS_9rv_policyEPNS0_12cleanup_listE.exit, label %14

14:                                               ; preds = %10
  %15 = load ptr, ptr %11, align 8, !tbaa !24
  %16 = getelementptr inbounds i8, ptr %15, i64 -8
  %17 = load ptr, ptr %16, align 8
  br label %_ZN8nanobind6detail16type_caster_baseI6AnimalE8from_cppIPS2_EENS_6handleEOT_NS_9rv_policyEPNS0_12cleanup_listE.exit

_ZN8nanobind6detail16type_caster_baseI6AnimalE8from_cppIPS2_EENS_6handleEOT_NS_9rv_policyEPNS0_12cleanup_listE.exit: ; preds = %10, %14
  %18 = phi ptr [ %17, %14 ], [ null, %10 ]
  %19 = call noundef ptr @_ZN8nanobind6detail13nb_type_put_pEPKSt9type_infoS3_PvNS_9rv_policyEPNS0_12cleanup_listEPb(ptr noundef nonnull @_ZTI6Animal, ptr noundef %18, ptr noundef %11, i32 noundef %.0.i4, ptr noundef %4, ptr noundef null) #35
  br label %"_ZZN8nanobind6detail11func_createILb0ELb1EZL30nanobind_init_test_classes_extRNS_7module_EE3$_8P6AnimalJS6_EJLm0EEJNS_5scopeENS_4nameENS_9rv_policyEEEEP7_objectOT1_PFT2_DpT3_ESt16integer_sequenceImJXspT4_EEEDpRKT5_ENKUlPvPSB_PhS9_PNS0_12cleanup_listEE_clESP_SQ_SR_S9_ST_.exit"

"_ZZN8nanobind6detail11func_createILb0ELb1EZL30nanobind_init_test_classes_extRNS_7module_EE3$_8P6AnimalJS6_EJLm0EEJNS_5scopeENS_4nameENS_9rv_policyEEEEP7_objectOT1_PFT2_DpT3_ESt16integer_sequenceImJXspT4_EEEDpRKT5_ENKUlPvPSB_PhS9_PNS0_12cleanup_listEE_clESP_SQ_SR_S9_ST_.exit": ; preds = %5, %_ZN8nanobind6detail16type_caster_baseI6AnimalE8from_cppIPS2_EENS_6handleEOT_NS_9rv_policyEPNS0_12cleanup_listE.exit
  %.0.i = phi ptr [ %19, %_ZN8nanobind6detail16type_caster_baseI6AnimalE8from_cppIPS2_EENS_6handleEOT_NS_9rv_policyEPNS0_12cleanup_listE.exit ], [ inttoptr (i64 1 to ptr), %5 ]
  call void @llvm.lifetime.end.p0(i64 8, ptr nonnull %6) #37
  ret ptr %.0.i
}